; Function Attrs: mustprogress nofree norecurse nosync nounwind willreturn memory(read, inaccessiblemem: none) uwtable
define noundef i32 @_ZNK6icu_7517UCharsTrieBuilder26indexOfElementWithNextUnitEiiDs(ptr nocapture noundef nonnull readonly align 8 dereferenceable(112) %this, i32 noundef %i, i32 noundef %unitIndex, i16 noundef zeroext %unit) unnamed_addr #7 align 2 {
entry:
  %elements = getelementptr inbounds i8, ptr %this, i64 80
  %0 = load ptr, ptr %elements, align 8
  %add.i = add i32 %unitIndex, 1
  %fUnion.i.i.i.i.i = getelementptr inbounds i8, ptr %this, i64 24
  %1 = load i16, ptr %fUnion.i.i.i.i.i, align 8
  %cmp.i.i.i.i.i = icmp slt i16 %1, 0
  %2 = ashr i16 %1, 5
  %shr.i.i.i.i.i = sext i16 %2 to i32
  %fLength.i.i.i.i = getelementptr inbounds i8, ptr %this, i64 28
  %3 = load i32, ptr %fLength.i.i.i.i, align 4
  %cond.i.i.i.i = select i1 %cmp.i.i.i.i.i, i32 %3, i32 %shr.i.i.i.i.i
  %4 = and i16 %1, 2
  %tobool.not.i.i.i.i = icmp eq i16 %4, 0
  %fBuffer.i.i.i.i = getelementptr inbounds i8, ptr %this, i64 26
  %fArray.i.i.i.i = getelementptr inbounds i8, ptr %this, i64 40
  %5 = load ptr, ptr %fArray.i.i.i.i, align 8
  %cond.i2.i.i.i = select i1 %tobool.not.i.i.i.i, ptr %5, ptr %fBuffer.i.i.i.i
  %6 = sext i32 %i to i64
  br label %while.cond

while.cond:                                       ; preds = %_ZNK6icu_7517UCharsTrieElement6charAtEiRKNS_13UnicodeStringE.exit, %entry
  %indvars.iv = phi i64 [ %indvars.iv.next, %_ZNK6icu_7517UCharsTrieElement6charAtEiRKNS_13UnicodeStringE.exit ], [ %6, %entry ]
  %arrayidx = getelementptr inbounds %"class.icu_75::UCharsTrieElement", ptr %0, i64 %indvars.iv
  %7 = load i32, ptr %arrayidx, align 4
  %add2.i = add i32 %add.i, %7
  %cmp.i.i.i = icmp ugt i32 %cond.i.i.i.i, %add2.i
  br i1 %cmp.i.i.i, label %if.then.i.i.i, label %_ZNK6icu_7517UCharsTrieElement6charAtEiRKNS_13UnicodeStringE.exit

if.then.i.i.i:                                    ; preds = %while.cond
  %idxprom.i.i.i = sext i32 %add2.i to i64
  %arrayidx.i.i.i = getelementptr inbounds i16, ptr %cond.i2.i.i.i, i64 %idxprom.i.i.i
  %8 = load i16, ptr %arrayidx.i.i.i, align 2
  br label %_ZNK6icu_7517UCharsTrieElement6charAtEiRKNS_13UnicodeStringE.exit

_ZNK6icu_7517UCharsTrieElement6charAtEiRKNS_13UnicodeStringE.exit: ; preds = %while.cond, %if.then.i.i.i
  %retval.0.i.i.i = phi i16 [ %8, %if.then.i.i.i ], [ -1, %while.cond ]
  %cmp = icmp eq i16 %retval.0.i.i.i, %unit
  %indvars.iv.next = add i64 %indvars.iv, 1
  br i1 %cmp, label %while.cond, label %while.end, !llvm.loop !21

while.end:                                        ; preds = %_ZNK6icu_7517UCharsTrieElement6charAtEiRKNS_13UnicodeStringE.exit
  %9 = trunc i64 %indvars.iv to i32
  ret i32 %9
}